target datalayout = "e-m:e-p270:32:32-p271:32:32-p272:64:64-i64:64-i128:128-f80:128-n8:16:32:64-S128"
target triple = "x86_64-unknown-linux-gnu"

%"struct.icu_75::FormattedStringBuilder::Field" = type { i8 }
%"class.icu_75::UnicodeString" = type { %"class.icu_75::Replaceable", %"union.icu_75::UnicodeString::StackBufferOrFields" }
%"class.icu_75::Replaceable" = type { %"class.icu_75::UObject" }
%"class.icu_75::UObject" = type { ptr }
%"union.icu_75::UnicodeString::StackBufferOrFields" = type { %struct.anon.0, [32 x i8] }
%struct.anon.0 = type { i16, i32, i32, ptr }
%"class.icu_75::number::impl::LongNameHandler" = type { %"class.icu_75::number::impl::MicroPropsGenerator", %"class.icu_75::number::impl::ModifierStore", [8 x %"class.icu_75::number::impl::SimpleModifier"], ptr, ptr, ptr }
%"class.icu_75::number::impl::MicroPropsGenerator" = type { ptr }
%"class.icu_75::number::impl::ModifierStore" = type { ptr }
%"class.icu_75::number::impl::SimpleModifier" = type { %"class.icu_75::number::impl::Modifier", %"class.icu_75::UnicodeString", %"struct.icu_75::FormattedStringBuilder::Field", i8, i32, i32, i32, %"struct.icu_75::number::impl::Modifier::Parameters" }
%"class.icu_75::number::impl::Modifier" = type { ptr }
%"struct.icu_75::number::impl::Modifier::Parameters" = type { ptr, i32, i32 }
%"class.icu_75::MeasureUnit" = type <{ %"class.icu_75::UObject", ptr, i16, i8, [5 x i8] }>
%"struct.icu_75::number::impl::MicroProps" = type <{ %"class.icu_75::number::impl::MicroPropsGenerator", %"struct.icu_75::number::impl::SimpleMicroProps", %"class.icu_75::number::impl::RoundingImpl", %"class.icu_75::number::impl::Padder", %"class.icu_75::number::IntegerWidth", i32, [9 x i8], [3 x i8], ptr, ptr, ptr, ptr, %struct.anon.7, %"class.icu_75::MeasureUnit", %"class.icu_75::number::impl::IntMeasures", i32, i32, i8, [7 x i8] }>
%"struct.icu_75::number::impl::SimpleMicroProps" = type { [4 x i8], %"class.icu_75::number::impl::Grouper", i8, i32, %"class.icu_75::UnicodeString", ptr }
%"class.icu_75::number::impl::Grouper" = type { i16, i16, i16, i32 }
%"class.icu_75::number::impl::RoundingImpl" = type <{ %"class.icu_75::number::Precision", i32, i8, [3 x i8] }>
%"class.icu_75::number::Precision" = type <{ i32, [4 x i8], %"union.icu_75::number::Precision::PrecisionUnion", i32, [4 x i8] }>
%"union.icu_75::number::Precision::PrecisionUnion" = type { %"struct.icu_75::number::Precision::PrecisionUnion::IncrementSettings" }
%"struct.icu_75::number::Precision::PrecisionUnion::IncrementSettings" = type { i64, i16, i16 }
%"class.icu_75::number::impl::Padder" = type { i32, %union.anon.3 }
%union.anon.3 = type { %struct.anon.4 }
%struct.anon.4 = type { i32, i32 }
%"class.icu_75::number::IntegerWidth" = type <{ %union.anon.5, i8, [3 x i8] }>
%union.anon.5 = type { i32, [4 x i8] }
%struct.anon.7 = type { %"class.icu_75::number::impl::ScientificModifier", %"class.icu_75::number::impl::EmptyModifier", %"class.icu_75::number::impl::EmptyModifier", %"class.icu_75::number::impl::MultiplierFormatHandler", %"class.icu_75::number::impl::SimpleModifier" }
%"class.icu_75::number::impl::ScientificModifier" = type { %"class.icu_75::number::impl::Modifier", i32, ptr }
%"class.icu_75::number::impl::EmptyModifier" = type <{ %"class.icu_75::number::impl::Modifier", i8, [7 x i8] }>
%"class.icu_75::number::impl::MultiplierFormatHandler" = type { %"class.icu_75::number::impl::MicroPropsGenerator", %"class.icu_75::number::Scale", ptr }
%"class.icu_75::number::Scale" = type <{ i32, [4 x i8], ptr, i32, [4 x i8] }>
%"class.icu_75::number::impl::IntMeasures" = type <{ %"class.icu_75::MaybeStackArray.8", i32, [4 x i8] }>
%"class.icu_75::MaybeStackArray.8" = type { ptr, i32, i8, [2 x i64] }

; Function Attrs: mustprogress uwtable
define void @_ZNK6icu_756number4impl15LongNameHandler15processQuantityERNS1_15DecimalQuantityERNS1_10MicroPropsER10UErrorCode(ptr noundef nonnull align 8 dereferenceable(872) %this, ptr noundef nonnull align 8 dereferenceable(66) %quantity, ptr noundef nonnull align 8 dereferenceable(489) %micros, ptr noundef nonnull align 4 dereferenceable(4) %status) unnamed_addr #1 align 2 {
entry:
  %this.addr = alloca ptr, align 8
  %quantity.addr = alloca ptr, align 8
  %micros.addr = alloca ptr, align 8
  %status.addr = alloca ptr, align 8
  %pluralForm = alloca i32, align 4
  store ptr %this, ptr %this.addr, align 8
  store ptr %quantity, ptr %quantity.addr, align 8
  store ptr %micros, ptr %micros.addr, align 8
  store ptr %status, ptr %status.addr, align 8
  %this1 = load ptr, ptr %this.addr, align 8
  %parent = getelementptr inbounds %"class.icu_75::number::impl::LongNameHandler", ptr %this1, i32 0, i32 4
  %0 = load ptr, ptr %parent, align 8
  %cmp = icmp ne ptr %0, null
  br i1 %cmp, label %if.then, label %if.end

if.then:                                          ; preds = %entry
  %parent2 = getelementptr inbounds %"class.icu_75::number::impl::LongNameHandler", ptr %this1, i32 0, i32 4
  %1 = load ptr, ptr %parent2, align 8
  %2 = load ptr, ptr %quantity.addr, align 8
  %3 = load ptr, ptr %micros.addr, align 8
  %4 = load ptr, ptr %status.addr, align 8
  %vtable = load ptr, ptr %1, align 8
  %vfn = getelementptr inbounds ptr, ptr %vtable, i64 2
  %5 = load ptr, ptr %vfn, align 8
  call void %5(ptr noundef nonnull align 8 dereferenceable(8) %1, ptr noundef nonnull align 8 dereferenceable(66) %2, ptr noundef nonnull align 8 dereferenceable(489) %3, ptr noundef nonnull align 4 dereferenceable(4) %4)
  br label %if.end

if.end:                                           ; preds = %if.then, %entry
  %6 = load ptr, ptr %micros.addr, align 8
  %rounder = getelementptr inbounds %"struct.icu_75::number::impl::MicroProps", ptr %6, i32 0, i32 2
  %rules = getelementptr inbounds %"class.icu_75::number::impl::LongNameHandler", ptr %this1, i32 0, i32 3
  %7 = load ptr, ptr %rules, align 8
  %8 = load ptr, ptr %quantity.addr, align 8
  %9 = load ptr, ptr %status.addr, align 8
  %call = call noundef i32 @_ZN6icu_756number4impl5utils13getPluralSafeERKNS1_12RoundingImplEPKNS_11PluralRulesERKNS1_15DecimalQuantityER10UErrorCode(ptr noundef nonnull align 8 dereferenceable(37) %rounder, ptr noundef %7, ptr noundef nonnull align 8 dereferenceable(66) %8, ptr noundef nonnull align 4 dereferenceable(4) %9)
  store i32 %call, ptr %pluralForm, align 4
  %fModifiers = getelementptr inbounds %"class.icu_75::number::impl::LongNameHandler", ptr %this1, i32 0, i32 2
  %10 = load i32, ptr %pluralForm, align 4
  %idxprom = zext i32 %10 to i64
  %arrayidx = getelementptr inbounds [8 x %"class.icu_75::number::impl::SimpleModifier"], ptr %fModifiers, i64 0, i64 %idxprom
  %11 = load ptr, ptr %micros.addr, align 8
  %modOuter = getelementptr inbounds %"struct.icu_75::number::impl::MicroProps", ptr %11, i32 0, i32 9
  store ptr %arrayidx, ptr %modOuter, align 8
  %gender = getelementptr inbounds %"class.icu_75::number::impl::LongNameHandler", ptr %this1, i32 0, i32 5
  %12 = load ptr, ptr %gender, align 8
  %13 = load ptr, ptr %micros.addr, align 8
  %gender3 = getelementptr inbounds %"struct.icu_75::number::impl::MicroProps", ptr %13, i32 0, i32 8
  store ptr %12, ptr %gender3, align 8
  ret void
}