; Function Attrs: mustprogress uwtable
define void @_ZNK6icu_756number4impl15LongNameHandler15processQuantityERNS1_15DecimalQuantityERNS1_10MicroPropsER10UErrorCode(ptr noundef nonnull align 8 dereferenceable(872) %this, ptr noundef nonnull align 8 dereferenceable(66) %quantity, ptr noundef nonnull align 8 dereferenceable(489) %micros, ptr noundef nonnull align 4 dereferenceable(4) %status) unnamed_addr #1 align 2 {
entry:
  %parent = getelementptr inbounds i8, ptr %this, i64 856
  %0 = load ptr, ptr %parent, align 8
  %cmp.not = icmp eq ptr %0, null
  br i1 %cmp.not, label %if.end, label %if.then

if.then:                                          ; preds = %entry
  %vtable = load ptr, ptr %0, align 8
  %vfn = getelementptr inbounds i8, ptr %vtable, i64 16
  %1 = load ptr, ptr %vfn, align 8
  tail call void %1(ptr noundef nonnull align 8 dereferenceable(8) %0, ptr noundef nonnull align 8 dereferenceable(66) %quantity, ptr noundef nonnull align 8 dereferenceable(489) %micros, ptr noundef nonnull align 4 dereferenceable(4) %status)
  br label %if.end

if.end:                                           ; preds = %if.then, %entry
  %rounder = getelementptr inbounds i8, ptr %micros, i64 104
  %rules = getelementptr inbounds i8, ptr %this, i64 848
  %2 = load ptr, ptr %rules, align 8
  %call = tail call noundef i32 @_ZN6icu_756number4impl5utils13getPluralSafeERKNS1_12RoundingImplEPKNS_11PluralRulesERKNS1_15DecimalQuantityER10UErrorCode(ptr noundef nonnull align 8 dereferenceable(37) %rounder, ptr noundef %2, ptr noundef nonnull align 8 dereferenceable(66) %quantity, ptr noundef nonnull align 4 dereferenceable(4) %status)
  %fModifiers = getelementptr inbounds i8, ptr %this, i64 16
  %idxprom = zext i32 %call to i64
  %arrayidx = getelementptr inbounds [8 x %"class.icu_75::number::impl::SimpleModifier"], ptr %fModifiers, i64 0, i64 %idxprom
  %modOuter = getelementptr inbounds i8, ptr %micros, i64 192
  store ptr %arrayidx, ptr %modOuter, align 8
  %gender = getelementptr inbounds i8, ptr %this, i64 864
  %3 = load ptr, ptr %gender, align 8
  %gender3 = getelementptr inbounds i8, ptr %micros, i64 184
  store ptr %3, ptr %gender3, align 8
  ret void
}